target datalayout = "e-m:e-p270:32:32-p271:32:32-p272:64:64-i64:64-i128:128-f80:128-n8:16:32:64-S128"
target triple = "x86_64-unknown-linux-gnu"

%struct.vhost_vring_file = type { i32, i32 }
%struct.vhost_net = type { %struct.vhost_dev, [2 x %struct.vhost_virtqueue], i32, ptr }
%struct.vhost_dev = type { ptr, %struct.MemoryListener, %struct.MemoryListener, ptr, i32, ptr, i32, ptr, ptr, i32, i32, i32, i32, i64, i64, i64, i64, i64, i64, i8, i8, i64, ptr, ptr, ptr, ptr, %struct.anon, %struct.anon.1, %struct.IOMMUNotifier, ptr }
%struct.MemoryListener = type { ptr, ptr, ptr, ptr, ptr, ptr, ptr, ptr, ptr, ptr, ptr, ptr, ptr, ptr, ptr, ptr, ptr, i32, ptr, ptr, %union.anon, %union.anon.0 }
%union.anon = type { %struct.QTailQLink }
%struct.QTailQLink = type { ptr, ptr }
%union.anon.0 = type { %struct.QTailQLink }
%struct.anon = type { ptr, ptr }
%struct.anon.1 = type { ptr }
%struct.IOMMUNotifier = type { ptr, i32, i64, i64, i32, %struct.anon.2 }
%struct.anon.2 = type { ptr, ptr }
%struct.vhost_virtqueue = type { i32, i32, ptr, ptr, ptr, i32, i64, i32, i64, i32, i64, i32, %struct.EventNotifier, %struct.EventNotifier, %struct.EventNotifier, ptr }
%struct.EventNotifier = type { i32, i32, i8 }
%struct.NetClientState = type { ptr, i32, %union.anon.3, ptr, ptr, ptr, ptr, [256 x i8], i8, ptr, i32, i8, i32, i32, i8, i8, i8, %union.anon.4 }
%union.anon.3 = type { %struct.QTailQLink }
%union.anon.4 = type { %struct.QTailQLink }
%struct.NetClientInfo = type { i32, i64, ptr, ptr, ptr, ptr, ptr, ptr, ptr, ptr, ptr, ptr, ptr, ptr, ptr, ptr, ptr, ptr, ptr, ptr, ptr, ptr, ptr, ptr, ptr, ptr, ptr }
%struct.VhostOps = type { i32, ptr, ptr, ptr, ptr, ptr, ptr, ptr, ptr, ptr, ptr, ptr, ptr, ptr, ptr, ptr, ptr, ptr, ptr, ptr, ptr, ptr, ptr, ptr, ptr, ptr, ptr, ptr, ptr, ptr, ptr, ptr, ptr, ptr, ptr, ptr, ptr, ptr, ptr, ptr, ptr, ptr, ptr, ptr, ptr, ptr, ptr, ptr, ptr }

@.str.5 = private unnamed_addr constant [7 x i8] c"r >= 0\00", align 1
@.str.6 = private unnamed_addr constant [27 x i8] c"../qemu/hw/net/vhost_net.c\00", align 1
@.str.9 = private unnamed_addr constant [10 x i8] c"vhost_net\00", align 1
@__PRETTY_FUNCTION__.get_vhost_net = private unnamed_addr constant [47 x i8] c"VHostNetState *get_vhost_net(NetClientState *)\00", align 1
@__const.vhost_net_virtqueue_reset.file = private unnamed_addr constant %struct.vhost_vring_file { i32 0, i32 -1 }, align 4
@.str.10 = private unnamed_addr constant [10 x i8] c"vhost_ops\00", align 1
@__PRETTY_FUNCTION__.vhost_net_virtqueue_reset = private unnamed_addr constant [70 x i8] c"void vhost_net_virtqueue_reset(VirtIODevice *, NetClientState *, int)\00", align 1

; Function Attrs: nounwind sspstrong uwtable
define dso_local ptr @get_vhost_net(ptr noundef %nc) #0 {
entry:
  %retval = alloca ptr, align 8
  %nc.addr = alloca ptr, align 8
  %vhost_net = alloca ptr, align 8
  store ptr %nc, ptr %nc.addr, align 8
  store ptr null, ptr %vhost_net, align 8
  %0 = load ptr, ptr %nc.addr, align 8
  %tobool = icmp ne ptr %0, null
  br i1 %tobool, label %if.end, label %if.then

if.then:                                          ; preds = %entry
  store ptr null, ptr %retval, align 8
  br label %return

if.end:                                           ; preds = %entry
  %1 = load ptr, ptr %nc.addr, align 8
  %info = getelementptr inbounds %struct.NetClientState, ptr %1, i32 0, i32 0
  %2 = load ptr, ptr %info, align 8
  %type = getelementptr inbounds %struct.NetClientInfo, ptr %2, i32 0, i32 0
  %3 = load i32, ptr %type, align 8
  switch i32 %3, label %sw.default [
    i32 3, label %sw.bb
    i32 12, label %sw.bb1
    i32 13, label %sw.bb6
  ]

sw.bb:                                            ; preds = %if.end
  %4 = load ptr, ptr %nc.addr, align 8
  %call = call ptr @tap_get_vhost_net(ptr noundef %4)
  store ptr %call, ptr %vhost_net, align 8
  br label %sw.epilog

sw.bb1:                                           ; preds = %if.end
  %5 = load ptr, ptr %nc.addr, align 8
  %call2 = call ptr @vhost_user_get_vhost_net(ptr noundef %5)
  store ptr %call2, ptr %vhost_net, align 8
  %6 = load ptr, ptr %vhost_net, align 8
  %tobool3 = icmp ne ptr %6, null
  br i1 %tobool3, label %if.then4, label %if.else

if.then4:                                         ; preds = %sw.bb1
  br label %if.end5

if.else:                                          ; preds = %sw.bb1
  call void @__assert_fail(ptr noundef @.str.9, ptr noundef @.str.6, i32 noundef 523, ptr noundef @__PRETTY_FUNCTION__.get_vhost_net) #8
  unreachable

if.end5:                                          ; preds = %if.then4
  br label %sw.epilog

sw.bb6:                                           ; preds = %if.end
  %7 = load ptr, ptr %nc.addr, align 8
  %call7 = call ptr @vhost_vdpa_get_vhost_net(ptr noundef %7)
  store ptr %call7, ptr %vhost_net, align 8
  %8 = load ptr, ptr %vhost_net, align 8
  %tobool8 = icmp ne ptr %8, null
  br i1 %tobool8, label %if.then9, label %if.else10

if.then9:                                         ; preds = %sw.bb6
  br label %if.end11

if.else10:                                        ; preds = %sw.bb6
  call void @__assert_fail(ptr noundef @.str.9, ptr noundef @.str.6, i32 noundef 529, ptr noundef @__PRETTY_FUNCTION__.get_vhost_net) #8
  unreachable

if.end11:                                         ; preds = %if.then9
  br label %sw.epilog

sw.default:                                       ; preds = %if.end
  br label %sw.epilog

sw.epilog:                                        ; preds = %sw.default, %if.end11, %if.end5, %sw.bb
  %9 = load ptr, ptr %vhost_net, align 8
  store ptr %9, ptr %retval, align 8
  br label %return

return:                                           ; preds = %sw.epilog, %if.then
  %10 = load ptr, ptr %retval, align 8
  ret ptr %10
}

; Function Attrs: nounwind sspstrong uwtable
define dso_local void @vhost_net_virtqueue_reset(ptr noundef %vdev, ptr noundef %nc, i32 noundef %vq_index) #0 {
entry:
  %vdev.addr = alloca ptr, align 8
  %nc.addr = alloca ptr, align 8
  %vq_index.addr = alloca i32, align 4
  %net = alloca ptr, align 8
  %vhost_ops = alloca ptr, align 8
  %file = alloca %struct.vhost_vring_file, align 4
  %idx = alloca i32, align 4
  %r = alloca i32, align 4
  store ptr %vdev, ptr %vdev.addr, align 8
  store ptr %nc, ptr %nc.addr, align 8
  store i32 %vq_index, ptr %vq_index.addr, align 4
  %0 = load ptr, ptr %nc.addr, align 8
  %peer = getelementptr inbounds %struct.NetClientState, ptr %0, i32 0, i32 3
  %1 = load ptr, ptr %peer, align 8
  %call = call ptr @get_vhost_net(ptr noundef %1)
  store ptr %call, ptr %net, align 8
  %2 = load ptr, ptr %net, align 8
  %dev = getelementptr inbounds %struct.vhost_net, ptr %2, i32 0, i32 0
  %vhost_ops1 = getelementptr inbounds %struct.vhost_dev, ptr %dev, i32 0, i32 23
  %3 = load ptr, ptr %vhost_ops1, align 8
  store ptr %3, ptr %vhost_ops, align 8
  call void @llvm.memcpy.p0.p0.i64(ptr align 4 %file, ptr align 4 @__const.vhost_net_virtqueue_reset.file, i64 8, i1 false)
  %4 = load ptr, ptr %vhost_ops, align 8
  %tobool = icmp ne ptr %4, null
  br i1 %tobool, label %if.then, label %if.else

if.then:                                          ; preds = %entry
  br label %if.end

if.else:                                          ; preds = %entry
  call void @__assert_fail(ptr noundef @.str.10, ptr noundef @.str.6, i32 noundef 573, ptr noundef @__PRETTY_FUNCTION__.vhost_net_virtqueue_reset) #8
  unreachable

if.end:                                           ; preds = %if.then
  %5 = load ptr, ptr %vhost_ops, align 8
  %vhost_get_vq_index = getelementptr inbounds %struct.VhostOps, ptr %5, i32 0, i32 26
  %6 = load ptr, ptr %vhost_get_vq_index, align 8
  %7 = load ptr, ptr %net, align 8
  %dev2 = getelementptr inbounds %struct.vhost_net, ptr %7, i32 0, i32 0
  %8 = load i32, ptr %vq_index.addr, align 4
  %call3 = call i32 %6(ptr noundef %dev2, i32 noundef %8)
  store i32 %call3, ptr %idx, align 4
  %9 = load ptr, ptr %net, align 8
  %nc4 = getelementptr inbounds %struct.vhost_net, ptr %9, i32 0, i32 3
  %10 = load ptr, ptr %nc4, align 8
  %info = getelementptr inbounds %struct.NetClientState, ptr %10, i32 0, i32 0
  %11 = load ptr, ptr %info, align 8
  %type = getelementptr inbounds %struct.NetClientInfo, ptr %11, i32 0, i32 0
  %12 = load i32, ptr %type, align 8
  %cmp = icmp eq i32 %12, 3
  br i1 %cmp, label %if.then5, label %if.end12

if.then5:                                         ; preds = %if.end
  %13 = load i32, ptr %idx, align 4
  %index = getelementptr inbounds %struct.vhost_vring_file, ptr %file, i32 0, i32 0
  store i32 %13, ptr %index, align 4
  %14 = load ptr, ptr %net, align 8
  %dev6 = getelementptr inbounds %struct.vhost_net, ptr %14, i32 0, i32 0
  %call7 = call i32 @vhost_net_set_backend(ptr noundef %dev6, ptr noundef %file)
  store i32 %call7, ptr %r, align 4
  %15 = load i32, ptr %r, align 4
  %cmp8 = icmp sge i32 %15, 0
  br i1 %cmp8, label %if.then9, label %if.else10

if.then9:                                         ; preds = %if.then5
  br label %if.end11

if.else10:                                        ; preds = %if.then5
  call void @__assert_fail(ptr noundef @.str.5, ptr noundef @.str.6, i32 noundef 580, ptr noundef @__PRETTY_FUNCTION__.vhost_net_virtqueue_reset) #8
  unreachable

if.end11:                                         ; preds = %if.then9
  br label %if.end12

if.end12:                                         ; preds = %if.end11, %if.end
  %16 = load ptr, ptr %net, align 8
  %dev13 = getelementptr inbounds %struct.vhost_net, ptr %16, i32 0, i32 0
  %17 = load ptr, ptr %vdev.addr, align 8
  %18 = load ptr, ptr %net, align 8
  %dev14 = getelementptr inbounds %struct.vhost_net, ptr %18, i32 0, i32 0
  %vqs = getelementptr inbounds %struct.vhost_dev, ptr %dev14, i32 0, i32 8
  %19 = load ptr, ptr %vqs, align 8
  %20 = load i32, ptr %idx, align 4
  %idx.ext = sext i32 %20 to i64
  %add.ptr = getelementptr %struct.vhost_virtqueue, ptr %19, i64 %idx.ext
  %21 = load ptr, ptr %net, align 8
  %dev15 = getelementptr inbounds %struct.vhost_net, ptr %21, i32 0, i32 0
  %vq_index16 = getelementptr inbounds %struct.vhost_dev, ptr %dev15, i32 0, i32 10
  %22 = load i32, ptr %vq_index16, align 4
  %23 = load i32, ptr %idx, align 4
  %add = add i32 %22, %23
  call void @vhost_virtqueue_stop(ptr noundef %dev13, ptr noundef %17, ptr noundef %add.ptr, i32 noundef %add)
  ret void
}