; Function Attrs: nounwind sspstrong uwtable
define dso_local void @vhost_net_virtqueue_reset(ptr noundef %vdev, ptr noundef readonly captures(none) %nc, i32 noundef %vq_index) local_unnamed_addr #0 {
entry:
  %file = alloca %struct.vhost_vring_file, align 8
  %peer = getelementptr inbounds nuw i8, ptr %nc, i64 32
  %0 = load ptr, ptr %peer, align 8
  %tobool.not.i = icmp eq ptr %0, null
  br i1 %tobool.not.i, label %get_vhost_net.exit, label %if.end.i

if.end.i:                                         ; preds = %entry
  %1 = load ptr, ptr %0, align 8
  %2 = load i32, ptr %1, align 8
  switch i32 %2, label %get_vhost_net.exit [
    i32 3, label %sw.bb.i
    i32 12, label %sw.bb1.i
    i32 13, label %sw.bb6.i
  ]

sw.bb.i:                                          ; preds = %if.end.i
  %call.i = tail call ptr @tap_get_vhost_net(ptr noundef nonnull %0) #11
  br label %get_vhost_net.exit

sw.bb1.i:                                         ; preds = %if.end.i
  %call2.i = tail call ptr @vhost_user_get_vhost_net(ptr noundef nonnull %0) #11
  %tobool3.not.i = icmp eq ptr %call2.i, null
  br i1 %tobool3.not.i, label %if.else.i, label %get_vhost_net.exit

if.else.i:                                        ; preds = %sw.bb1.i
  tail call void @__assert_fail(ptr noundef nonnull @.str.9, ptr noundef nonnull @.str.6, i32 noundef 523, ptr noundef nonnull @__PRETTY_FUNCTION__.get_vhost_net) #14
  unreachable

sw.bb6.i:                                         ; preds = %if.end.i
  %call7.i = tail call ptr @vhost_vdpa_get_vhost_net(ptr noundef nonnull %0) #11
  %tobool8.not.i = icmp eq ptr %call7.i, null
  br i1 %tobool8.not.i, label %if.else10.i, label %get_vhost_net.exit

if.else10.i:                                      ; preds = %sw.bb6.i
  tail call void @__assert_fail(ptr noundef nonnull @.str.9, ptr noundef nonnull @.str.6, i32 noundef 529, ptr noundef nonnull @__PRETTY_FUNCTION__.get_vhost_net) #14
  unreachable

get_vhost_net.exit:                               ; preds = %entry, %if.end.i, %sw.bb.i, %sw.bb1.i, %sw.bb6.i
  %retval.0.i = phi ptr [ null, %entry ], [ null, %if.end.i ], [ %call7.i, %sw.bb6.i ], [ %call2.i, %sw.bb1.i ], [ %call.i, %sw.bb.i ]
  %vhost_ops1 = getelementptr inbounds nuw i8, ptr %retval.0.i, i64 528
  %3 = load ptr, ptr %vhost_ops1, align 8
  store i64 -4294967296, ptr %file, align 8
  %tobool.not = icmp eq ptr %3, null
  br i1 %tobool.not, label %if.else, label %if.end

if.else:                                          ; preds = %get_vhost_net.exit
  tail call void @__assert_fail(ptr noundef nonnull @.str.10, ptr noundef nonnull @.str.6, i32 noundef 573, ptr noundef nonnull @__PRETTY_FUNCTION__.vhost_net_virtqueue_reset) #14
  unreachable

if.end:                                           ; preds = %get_vhost_net.exit
  %vhost_get_vq_index = getelementptr inbounds nuw i8, ptr %3, i64 208
  %4 = load ptr, ptr %vhost_get_vq_index, align 8
  %call3 = tail call i32 %4(ptr noundef nonnull %retval.0.i, i32 noundef %vq_index) #11
  %nc4 = getelementptr inbounds nuw i8, ptr %retval.0.i, i64 904
  %5 = load ptr, ptr %nc4, align 8
  %6 = load ptr, ptr %5, align 8
  %7 = load i32, ptr %6, align 8
  %cmp = icmp eq i32 %7, 3
  br i1 %cmp, label %if.then5, label %if.end12

if.then5:                                         ; preds = %if.end
  store i32 %call3, ptr %file, align 8
  %call7 = call i32 @vhost_net_set_backend(ptr noundef nonnull %retval.0.i, ptr noundef nonnull %file) #11
  %cmp8 = icmp sgt i32 %call7, -1
  br i1 %cmp8, label %if.end12, label %if.else10

if.else10:                                        ; preds = %if.then5
  call void @__assert_fail(ptr noundef nonnull @.str.5, ptr noundef nonnull @.str.6, i32 noundef 580, ptr noundef nonnull @__PRETTY_FUNCTION__.vhost_net_virtqueue_reset) #14
  unreachable

if.end12:                                         ; preds = %if.then5, %if.end
  %vqs = getelementptr inbounds nuw i8, ptr %retval.0.i, i64 432
  %8 = load ptr, ptr %vqs, align 8
  %idx.ext = sext i32 %call3 to i64
  %add.ptr = getelementptr %struct.vhost_virtqueue, ptr %8, i64 %idx.ext
  %vq_index16 = getelementptr inbounds nuw i8, ptr %retval.0.i, i64 444
  %9 = load i32, ptr %vq_index16, align 4
  %add = add i32 %9, %call3
  call void @vhost_virtqueue_stop(ptr noundef nonnull %retval.0.i, ptr noundef %vdev, ptr noundef %add.ptr, i32 noundef %add) #11
  ret void
}